target datalayout = "e-m:e-p270:32:32-p271:32:32-p272:64:64-i64:64-i128:128-f80:128-n8:16:32:64-S128"
target triple = "x86_64-pc-linux-gnu"

%union.SourceSpan = type { i64 }
%struct.GenContext_ = type { i8, ptr, ptr, ptr, ptr, ptr, ptr, ptr, ptr, ptr, ptr, ptr, ptr, ptr, ptr, ptr, ptr, ptr, ptr, ptr, ptr, ptr, ptr, ptr, ptr, ptr, ptr, ptr, ptr, ptr, ptr, ptr, ptr, %struct.anon.85, i32, i32, %struct.DebugContext, ptr, ptr, ptr, %struct.BEValue, i8, %union.SourceSpan, ptr, ptr, ptr, ptr }
%struct.anon.85 = type { ptr, ptr, ptr }
%struct.DebugContext = type { i16, ptr, ptr, %struct.DebugFile_, ptr, ptr, ptr, ptr }
%struct.DebugFile_ = type { i16, ptr }
%struct.BEValue = type { i8, i32, ptr, ptr, ptr }
%struct.Type_ = type { i32, ptr, ptr, ptr, %union.anon.86, ptr, ptr, %union.anon.88 }
%union.anon.86 = type { ptr }
%union.anon.88 = type { %struct.TypeFunction }
%struct.TypeFunction = type { ptr, ptr, ptr }
%struct.TypeArray = type { ptr, i32 }

@.str = private unnamed_addr constant [36 x i8] c"FATAL ERROR %s -> in %s @ in %s:%d \00", align 1
@.str.1 = private unnamed_addr constant [22 x i8] c"Should be unreachable\00", align 1
@.str.2 = private unnamed_addr constant [118 x i8] c"generated/home/dtcxzyw/WorkSpace/Projects/compilers/llvm-opt-benchmark/bench/c3c/c3c/src/compiler/llvm_codegen_type.c\00", align 1
@__func__.llvm_get_type = private unnamed_addr constant [14 x i8] c"llvm_get_type\00", align 1

; Function Attrs: nounwind uwtable
define dso_local ptr @llvm_get_type(ptr noundef %0, ptr noundef %1) #0 {
  %3 = alloca ptr, align 8
  %4 = alloca ptr, align 8
  %5 = alloca ptr, align 8
  %6 = alloca ptr, align 8
  %7 = alloca ptr, align 8
  %8 = alloca [2 x ptr], align 16
  %9 = alloca ptr, align 8
  %10 = alloca [2 x ptr], align 16
  store ptr %0, ptr %4, align 8
  store ptr %1, ptr %5, align 8
  %11 = load ptr, ptr %5, align 8
  %12 = getelementptr inbounds %struct.Type_, ptr %11, i32 0, i32 4
  %13 = load ptr, ptr %12, align 8
  %14 = icmp ne ptr %13, null
  br i1 %14, label %15, label %19

15:                                               ; preds = %2
  %16 = load ptr, ptr %5, align 8
  %17 = getelementptr inbounds %struct.Type_, ptr %16, i32 0, i32 4
  %18 = load ptr, ptr %17, align 8
  store ptr %18, ptr %3, align 8
  br label %186

19:                                               ; preds = %2
  %20 = load ptr, ptr %5, align 8
  %21 = call ptr @type_lowering(ptr noundef %20)
  store ptr %21, ptr %6, align 8
  %22 = load ptr, ptr %6, align 8
  %23 = load ptr, ptr %5, align 8
  %24 = icmp ne ptr %22, %23
  br i1 %24, label %25, label %31

25:                                               ; preds = %19
  %26 = load ptr, ptr %4, align 8
  %27 = load ptr, ptr %6, align 8
  %28 = call ptr @llvm_get_type(ptr noundef %26, ptr noundef %27)
  %29 = load ptr, ptr %5, align 8
  %30 = getelementptr inbounds %struct.Type_, ptr %29, i32 0, i32 4
  store ptr %28, ptr %30, align 8
  store ptr %28, ptr %3, align 8
  br label %186

31:                                               ; preds = %19
  %32 = load ptr, ptr %5, align 8
  %33 = getelementptr inbounds %struct.Type_, ptr %32, i32 0, i32 0
  %34 = load i32, ptr %33, align 8
  switch i32 %34, label %184 [
    i32 42, label %35
    i32 36, label %35
    i32 38, label %35
    i32 39, label %35
    i32 0, label %35
    i32 43, label %35
    i32 41, label %35
    i32 24, label %35
    i32 31, label %35
    i32 22, label %35
    i32 32, label %35
    i32 21, label %35
    i32 30, label %35
    i32 29, label %35
    i32 40, label %35
    i32 20, label %35
    i32 18, label %38
    i32 28, label %38
    i32 26, label %41
    i32 27, label %41
    i32 25, label %49
    i32 1, label %56
    i32 16, label %63
    i32 13, label %70
    i32 14, label %77
    i32 15, label %84
    i32 17, label %91
    i32 3, label %98
    i32 4, label %98
    i32 5, label %98
    i32 6, label %98
    i32 7, label %98
    i32 8, label %98
    i32 9, label %98
    i32 10, label %98
    i32 11, label %98
    i32 12, label %98
    i32 2, label %109
    i32 23, label %116
    i32 33, label %122
    i32 35, label %122
    i32 34, label %128
    i32 19, label %149
    i32 37, label %170
  ]

35:                                               ; preds = %31, %31, %31, %31, %31, %31, %31, %31, %31, %31, %31, %31, %31, %31, %31, %31
  br label %36

36:                                               ; preds = %35
  call void (ptr, ...) @error_exit(ptr noundef @.str, ptr noundef @.str.1, ptr noundef @__func__.llvm_get_type, ptr noundef @.str.2, i32 noundef 317) #4
  unreachable

37:                                               ; No predecessors!
  br label %38

38:                                               ; preds = %37, %31, %31
  br label %39

39:                                               ; preds = %38
  call void (ptr, ...) @error_exit(ptr noundef @.str, ptr noundef @.str.1, ptr noundef @__func__.llvm_get_type, ptr noundef @.str.2, i32 noundef 320) #4
  unreachable

40:                                               ; No predecessors!
  br label %41

41:                                               ; preds = %40, %31, %31
  %42 = load ptr, ptr %4, align 8
  %43 = load ptr, ptr %5, align 8
  %44 = getelementptr inbounds %struct.Type_, ptr %43, i32 0, i32 7
  %45 = load ptr, ptr %44, align 8
  %46 = call ptr @llvm_type_from_decl(ptr noundef %42, ptr noundef %45)
  %47 = load ptr, ptr %5, align 8
  %48 = getelementptr inbounds %struct.Type_, ptr %47, i32 0, i32 4
  store ptr %46, ptr %48, align 8
  store ptr %46, ptr %3, align 8
  br label %186

49:                                               ; preds = %31
  %50 = load ptr, ptr %4, align 8
  %51 = load ptr, ptr %5, align 8
  %52 = call ptr @type_get_resolved_prototype(ptr noundef %51)
  %53 = call ptr @llvm_func_type(ptr noundef %50, ptr noundef %52)
  %54 = load ptr, ptr %5, align 8
  %55 = getelementptr inbounds %struct.Type_, ptr %54, i32 0, i32 4
  store ptr %53, ptr %55, align 8
  store ptr %53, ptr %3, align 8
  br label %186

56:                                               ; preds = %31
  %57 = load ptr, ptr %4, align 8
  %58 = getelementptr inbounds %struct.GenContext_, ptr %57, i32 0, i32 5
  %59 = load ptr, ptr %58, align 8
  %60 = call ptr @LLVMVoidTypeInContext(ptr noundef %59)
  %61 = load ptr, ptr %5, align 8
  %62 = getelementptr inbounds %struct.Type_, ptr %61, i32 0, i32 4
  store ptr %60, ptr %62, align 8
  store ptr %60, ptr %3, align 8
  br label %186

63:                                               ; preds = %31
  %64 = load ptr, ptr %4, align 8
  %65 = getelementptr inbounds %struct.GenContext_, ptr %64, i32 0, i32 5
  %66 = load ptr, ptr %65, align 8
  %67 = call ptr @LLVMDoubleTypeInContext(ptr noundef %66)
  %68 = load ptr, ptr %5, align 8
  %69 = getelementptr inbounds %struct.Type_, ptr %68, i32 0, i32 4
  store ptr %67, ptr %69, align 8
  store ptr %67, ptr %3, align 8
  br label %186

70:                                               ; preds = %31
  %71 = load ptr, ptr %4, align 8
  %72 = getelementptr inbounds %struct.GenContext_, ptr %71, i32 0, i32 5
  %73 = load ptr, ptr %72, align 8
  %74 = call ptr @LLVMHalfTypeInContext(ptr noundef %73)
  %75 = load ptr, ptr %5, align 8
  %76 = getelementptr inbounds %struct.Type_, ptr %75, i32 0, i32 4
  store ptr %74, ptr %76, align 8
  store ptr %74, ptr %3, align 8
  br label %186

77:                                               ; preds = %31
  %78 = load ptr, ptr %4, align 8
  %79 = getelementptr inbounds %struct.GenContext_, ptr %78, i32 0, i32 5
  %80 = load ptr, ptr %79, align 8
  %81 = call ptr @LLVMBFloatTypeInContext(ptr noundef %80)
  %82 = load ptr, ptr %5, align 8
  %83 = getelementptr inbounds %struct.Type_, ptr %82, i32 0, i32 4
  store ptr %81, ptr %83, align 8
  store ptr %81, ptr %3, align 8
  br label %186

84:                                               ; preds = %31
  %85 = load ptr, ptr %4, align 8
  %86 = getelementptr inbounds %struct.GenContext_, ptr %85, i32 0, i32 5
  %87 = load ptr, ptr %86, align 8
  %88 = call ptr @LLVMFloatTypeInContext(ptr noundef %87)
  %89 = load ptr, ptr %5, align 8
  %90 = getelementptr inbounds %struct.Type_, ptr %89, i32 0, i32 4
  store ptr %88, ptr %90, align 8
  store ptr %88, ptr %3, align 8
  br label %186

91:                                               ; preds = %31
  %92 = load ptr, ptr %4, align 8
  %93 = getelementptr inbounds %struct.GenContext_, ptr %92, i32 0, i32 5
  %94 = load ptr, ptr %93, align 8
  %95 = call ptr @LLVMFP128TypeInContext(ptr noundef %94)
  %96 = load ptr, ptr %5, align 8
  %97 = getelementptr inbounds %struct.Type_, ptr %96, i32 0, i32 4
  store ptr %95, ptr %97, align 8
  store ptr %95, ptr %3, align 8
  br label %186

98:                                               ; preds = %31, %31, %31, %31, %31, %31, %31, %31, %31, %31
  %99 = load ptr, ptr %4, align 8
  %100 = getelementptr inbounds %struct.GenContext_, ptr %99, i32 0, i32 5
  %101 = load ptr, ptr %100, align 8
  %102 = load ptr, ptr %5, align 8
  %103 = getelementptr inbounds %struct.Type_, ptr %102, i32 0, i32 7
  %104 = load i32, ptr %103, align 8
  %105 = and i32 %104, 255
  %106 = call ptr @LLVMIntTypeInContext(ptr noundef %101, i32 noundef %105)
  %107 = load ptr, ptr %5, align 8
  %108 = getelementptr inbounds %struct.Type_, ptr %107, i32 0, i32 4
  store ptr %106, ptr %108, align 8
  store ptr %106, ptr %3, align 8
  br label %186

109:                                              ; preds = %31
  %110 = load ptr, ptr %4, align 8
  %111 = getelementptr inbounds %struct.GenContext_, ptr %110, i32 0, i32 5
  %112 = load ptr, ptr %111, align 8
  %113 = call ptr @LLVMIntTypeInContext(ptr noundef %112, i32 noundef 8)
  %114 = load ptr, ptr %5, align 8
  %115 = getelementptr inbounds %struct.Type_, ptr %114, i32 0, i32 4
  store ptr %113, ptr %115, align 8
  store ptr %113, ptr %3, align 8
  br label %186

116:                                              ; preds = %31
  %117 = load ptr, ptr %4, align 8
  %118 = getelementptr inbounds %struct.GenContext_, ptr %117, i32 0, i32 27
  %119 = load ptr, ptr %118, align 8
  %120 = load ptr, ptr %5, align 8
  %121 = getelementptr inbounds %struct.Type_, ptr %120, i32 0, i32 4
  store ptr %119, ptr %121, align 8
  store ptr %119, ptr %3, align 8
  br label %186

122:                                              ; preds = %31, %31
  %123 = load ptr, ptr %4, align 8
  %124 = load ptr, ptr %5, align 8
  %125 = call ptr @llvm_type_from_array(ptr noundef %123, ptr noundef %124)
  %126 = load ptr, ptr %5, align 8
  %127 = getelementptr inbounds %struct.Type_, ptr %126, i32 0, i32 4
  store ptr %125, ptr %127, align 8
  store ptr %125, ptr %3, align 8
  br label %186

128:                                              ; preds = %31
  %129 = load ptr, ptr %4, align 8
  %130 = getelementptr inbounds %struct.GenContext_, ptr %129, i32 0, i32 5
  %131 = load ptr, ptr %130, align 8
  %132 = load ptr, ptr %5, align 8
  %133 = getelementptr inbounds %struct.Type_, ptr %132, i32 0, i32 2
  %134 = load ptr, ptr %133, align 8
  %135 = call ptr @LLVMStructCreateNamed(ptr noundef %131, ptr noundef %134)
  store ptr %135, ptr %7, align 8
  %136 = getelementptr inbounds [2 x ptr], ptr %8, i64 0, i64 0
  %137 = load ptr, ptr %4, align 8
  %138 = getelementptr inbounds %struct.GenContext_, ptr %137, i32 0, i32 27
  %139 = load ptr, ptr %138, align 8
  store ptr %139, ptr %136, align 8
  %140 = getelementptr inbounds ptr, ptr %136, i64 1
  %141 = load ptr, ptr %4, align 8
  %142 = getelementptr inbounds %struct.GenContext_, ptr %141, i32 0, i32 24
  %143 = load ptr, ptr %142, align 8
  store ptr %143, ptr %140, align 8
  %144 = load ptr, ptr %7, align 8
  %145 = getelementptr inbounds [2 x ptr], ptr %8, i64 0, i64 0
  call void @LLVMStructSetBody(ptr noundef %144, ptr noundef %145, i32 noundef 2, i32 noundef 0)
  %146 = load ptr, ptr %7, align 8
  %147 = load ptr, ptr %5, align 8
  %148 = getelementptr inbounds %struct.Type_, ptr %147, i32 0, i32 4
  store ptr %146, ptr %148, align 8
  store ptr %146, ptr %3, align 8
  br label %186

149:                                              ; preds = %31
  %150 = load ptr, ptr %4, align 8
  %151 = getelementptr inbounds %struct.GenContext_, ptr %150, i32 0, i32 5
  %152 = load ptr, ptr %151, align 8
  %153 = load ptr, ptr %5, align 8
  %154 = getelementptr inbounds %struct.Type_, ptr %153, i32 0, i32 2
  %155 = load ptr, ptr %154, align 8
  %156 = call ptr @LLVMStructCreateNamed(ptr noundef %152, ptr noundef %155)
  store ptr %156, ptr %9, align 8
  %157 = getelementptr inbounds [2 x ptr], ptr %10, i64 0, i64 0
  %158 = load ptr, ptr %4, align 8
  %159 = getelementptr inbounds %struct.GenContext_, ptr %158, i32 0, i32 27
  %160 = load ptr, ptr %159, align 8
  store ptr %160, ptr %157, align 8
  %161 = getelementptr inbounds ptr, ptr %157, i64 1
  %162 = load ptr, ptr %4, align 8
  %163 = getelementptr inbounds %struct.GenContext_, ptr %162, i32 0, i32 25
  %164 = load ptr, ptr %163, align 8
  store ptr %164, ptr %161, align 8
  %165 = load ptr, ptr %9, align 8
  %166 = getelementptr inbounds [2 x ptr], ptr %10, i64 0, i64 0
  call void @LLVMStructSetBody(ptr noundef %165, ptr noundef %166, i32 noundef 2, i32 noundef 0)
  %167 = load ptr, ptr %9, align 8
  %168 = load ptr, ptr %5, align 8
  %169 = getelementptr inbounds %struct.Type_, ptr %168, i32 0, i32 4
  store ptr %167, ptr %169, align 8
  store ptr %167, ptr %3, align 8
  br label %186

170:                                              ; preds = %31
  %171 = load ptr, ptr %4, align 8
  %172 = load ptr, ptr %5, align 8
  %173 = getelementptr inbounds %struct.Type_, ptr %172, i32 0, i32 7
  %174 = getelementptr inbounds %struct.TypeArray, ptr %173, i32 0, i32 0
  %175 = load ptr, ptr %174, align 8
  %176 = call ptr @llvm_get_type(ptr noundef %171, ptr noundef %175)
  %177 = load ptr, ptr %5, align 8
  %178 = getelementptr inbounds %struct.Type_, ptr %177, i32 0, i32 7
  %179 = getelementptr inbounds %struct.TypeArray, ptr %178, i32 0, i32 1
  %180 = load i32, ptr %179, align 8
  %181 = call ptr @LLVMVectorType(ptr noundef %176, i32 noundef %180)
  %182 = load ptr, ptr %5, align 8
  %183 = getelementptr inbounds %struct.Type_, ptr %182, i32 0, i32 4
  store ptr %181, ptr %183, align 8
  store ptr %181, ptr %3, align 8
  br label %186

184:                                              ; preds = %31
  br label %185

185:                                              ; preds = %184
  call void (ptr, ...) @error_exit(ptr noundef @.str, ptr noundef @.str.1, ptr noundef @__func__.llvm_get_type, ptr noundef @.str.2, i32 noundef 366) #4
  unreachable

186:                                              ; preds = %170, %149, %128, %122, %116, %109, %98, %91, %84, %77, %70, %63, %56, %49, %41, %25, %15
  %187 = load ptr, ptr %3, align 8
  ret ptr %187
}