; Function Attrs: nounwind uwtable
define dso_local ptr @llvm_get_type(ptr noundef %0, ptr noundef %1) local_unnamed_addr #0 {
  %3 = alloca [2 x ptr], align 16
  %4 = alloca [2 x ptr], align 16
  %5 = getelementptr inbounds i8, ptr %1, i64 32
  %6 = load ptr, ptr %5, align 8
  %.not = icmp eq ptr %6, null
  br i1 %.not, label %7, label %common.ret

7:                                                ; preds = %2
  %8 = tail call fastcc ptr @type_lowering(ptr noundef nonnull %1)
  %.not59 = icmp eq ptr %8, %1
  br i1 %.not59, label %11, label %9

common.ret.sink.split:                            ; preds = %9, %84, %73, %62, %60, %57, %53, %46, %42, %38, %34, %30, %26, %22, %19, %15
  %.sink = phi ptr [ %18, %15 ], [ %21, %19 ], [ %25, %22 ], [ %29, %26 ], [ %33, %30 ], [ %37, %34 ], [ %41, %38 ], [ %45, %42 ], [ %52, %46 ], [ %56, %53 ], [ %59, %57 ], [ %61, %60 ], [ %67, %62 ], [ %78, %73 ], [ %90, %84 ], [ %10, %9 ]
  store ptr %.sink, ptr %5, align 8
  br label %common.ret

common.ret:                                       ; preds = %common.ret.sink.split, %2
  %common.ret.op = phi ptr [ %6, %2 ], [ %.sink, %common.ret.sink.split ]
  ret ptr %common.ret.op

9:                                                ; preds = %7
  %10 = tail call ptr @llvm_get_type(ptr noundef %0, ptr noundef %8)
  br label %common.ret.sink.split

11:                                               ; preds = %7
  %12 = load i32, ptr %1, align 8
  switch i32 %12, label %91 [
    i32 42, label %13
    i32 36, label %13
    i32 38, label %13
    i32 39, label %13
    i32 0, label %13
    i32 43, label %13
    i32 41, label %13
    i32 24, label %13
    i32 31, label %13
    i32 22, label %13
    i32 32, label %13
    i32 21, label %13
    i32 30, label %13
    i32 29, label %13
    i32 40, label %13
    i32 20, label %13
    i32 18, label %14
    i32 28, label %14
    i32 26, label %15
    i32 27, label %15
    i32 25, label %19
    i32 1, label %22
    i32 16, label %26
    i32 13, label %30
    i32 14, label %34
    i32 15, label %38
    i32 17, label %42
    i32 3, label %46
    i32 4, label %46
    i32 5, label %46
    i32 6, label %46
    i32 7, label %46
    i32 8, label %46
    i32 9, label %46
    i32 10, label %46
    i32 11, label %46
    i32 12, label %46
    i32 2, label %53
    i32 23, label %57
    i32 33, label %60
    i32 35, label %60
    i32 34, label %62
    i32 19, label %73
    i32 37, label %84
  ]

13:                                               ; preds = %11, %11, %11, %11, %11, %11, %11, %11, %11, %11, %11, %11, %11, %11, %11, %11
  tail call void (ptr, ...) @error_exit(ptr noundef nonnull @.str, ptr noundef nonnull @.str.1, ptr noundef nonnull @__func__.llvm_get_type, ptr noundef nonnull @.str.2, i32 noundef 317) #5
  unreachable

14:                                               ; preds = %11, %11
  tail call void (ptr, ...) @error_exit(ptr noundef nonnull @.str, ptr noundef nonnull @.str.1, ptr noundef nonnull @__func__.llvm_get_type, ptr noundef nonnull @.str.2, i32 noundef 320) #5
  unreachable

15:                                               ; preds = %11, %11
  %16 = getelementptr inbounds i8, ptr %1, i64 56
  %17 = load ptr, ptr %16, align 8
  %18 = tail call fastcc ptr @llvm_type_from_decl(ptr noundef %0, ptr noundef %17)
  br label %common.ret.sink.split

19:                                               ; preds = %11
  %20 = tail call ptr @type_get_resolved_prototype(ptr noundef nonnull %1) #6
  %21 = tail call ptr @llvm_func_type(ptr noundef %0, ptr noundef %20)
  br label %common.ret.sink.split

22:                                               ; preds = %11
  %23 = getelementptr inbounds i8, ptr %0, i64 40
  %24 = load ptr, ptr %23, align 8
  %25 = tail call ptr @LLVMVoidTypeInContext(ptr noundef %24) #6
  br label %common.ret.sink.split

26:                                               ; preds = %11
  %27 = getelementptr inbounds i8, ptr %0, i64 40
  %28 = load ptr, ptr %27, align 8
  %29 = tail call ptr @LLVMDoubleTypeInContext(ptr noundef %28) #6
  br label %common.ret.sink.split

30:                                               ; preds = %11
  %31 = getelementptr inbounds i8, ptr %0, i64 40
  %32 = load ptr, ptr %31, align 8
  %33 = tail call ptr @LLVMHalfTypeInContext(ptr noundef %32) #6
  br label %common.ret.sink.split

34:                                               ; preds = %11
  %35 = getelementptr inbounds i8, ptr %0, i64 40
  %36 = load ptr, ptr %35, align 8
  %37 = tail call ptr @LLVMBFloatTypeInContext(ptr noundef %36) #6
  br label %common.ret.sink.split

38:                                               ; preds = %11
  %39 = getelementptr inbounds i8, ptr %0, i64 40
  %40 = load ptr, ptr %39, align 8
  %41 = tail call ptr @LLVMFloatTypeInContext(ptr noundef %40) #6
  br label %common.ret.sink.split

42:                                               ; preds = %11
  %43 = getelementptr inbounds i8, ptr %0, i64 40
  %44 = load ptr, ptr %43, align 8
  %45 = tail call ptr @LLVMFP128TypeInContext(ptr noundef %44) #6
  br label %common.ret.sink.split

46:                                               ; preds = %11, %11, %11, %11, %11, %11, %11, %11, %11, %11
  %47 = getelementptr inbounds i8, ptr %0, i64 40
  %48 = load ptr, ptr %47, align 8
  %49 = getelementptr inbounds i8, ptr %1, i64 56
  %50 = load i32, ptr %49, align 8
  %51 = and i32 %50, 255
  %52 = tail call ptr @LLVMIntTypeInContext(ptr noundef %48, i32 noundef %51) #6
  br label %common.ret.sink.split

53:                                               ; preds = %11
  %54 = getelementptr inbounds i8, ptr %0, i64 40
  %55 = load ptr, ptr %54, align 8
  %56 = tail call ptr @LLVMIntTypeInContext(ptr noundef %55, i32 noundef 8) #6
  br label %common.ret.sink.split

57:                                               ; preds = %11
  %58 = getelementptr inbounds i8, ptr %0, i64 216
  %59 = load ptr, ptr %58, align 8
  br label %common.ret.sink.split

60:                                               ; preds = %11, %11
  %61 = tail call fastcc ptr @llvm_type_from_array(ptr noundef %0, ptr noundef nonnull %1)
  br label %common.ret.sink.split

62:                                               ; preds = %11
  %63 = getelementptr inbounds i8, ptr %0, i64 40
  %64 = load ptr, ptr %63, align 8
  %65 = getelementptr inbounds i8, ptr %1, i64 16
  %66 = load ptr, ptr %65, align 8
  %67 = tail call ptr @LLVMStructCreateNamed(ptr noundef %64, ptr noundef %66) #6
  %68 = getelementptr inbounds i8, ptr %0, i64 216
  %69 = load ptr, ptr %68, align 8
  store ptr %69, ptr %3, align 16
  %70 = getelementptr inbounds i8, ptr %3, i64 8
  %71 = getelementptr inbounds i8, ptr %0, i64 192
  %72 = load ptr, ptr %71, align 8
  store ptr %72, ptr %70, align 8
  call void @LLVMStructSetBody(ptr noundef %67, ptr noundef nonnull %3, i32 noundef 2, i32 noundef 0) #6
  br label %common.ret.sink.split

73:                                               ; preds = %11
  %74 = getelementptr inbounds i8, ptr %0, i64 40
  %75 = load ptr, ptr %74, align 8
  %76 = getelementptr inbounds i8, ptr %1, i64 16
  %77 = load ptr, ptr %76, align 8
  %78 = tail call ptr @LLVMStructCreateNamed(ptr noundef %75, ptr noundef %77) #6
  %79 = getelementptr inbounds i8, ptr %0, i64 216
  %80 = load ptr, ptr %79, align 8
  store ptr %80, ptr %4, align 16
  %81 = getelementptr inbounds i8, ptr %4, i64 8
  %82 = getelementptr inbounds i8, ptr %0, i64 200
  %83 = load ptr, ptr %82, align 8
  store ptr %83, ptr %81, align 8
  call void @LLVMStructSetBody(ptr noundef %78, ptr noundef nonnull %4, i32 noundef 2, i32 noundef 0) #6
  br label %common.ret.sink.split

84:                                               ; preds = %11
  %85 = getelementptr inbounds i8, ptr %1, i64 56
  %86 = load ptr, ptr %85, align 8
  %87 = tail call ptr @llvm_get_type(ptr noundef %0, ptr noundef %86)
  %88 = getelementptr inbounds i8, ptr %1, i64 64
  %89 = load i32, ptr %88, align 8
  %90 = tail call ptr @LLVMVectorType(ptr noundef %87, i32 noundef %89) #6
  br label %common.ret.sink.split

91:                                               ; preds = %11
  tail call void (ptr, ...) @error_exit(ptr noundef nonnull @.str, ptr noundef nonnull @.str.1, ptr noundef nonnull @__func__.llvm_get_type, ptr noundef nonnull @.str.2, i32 noundef 366) #5
  unreachable
}